; Function Attrs: nofree nounwind uwtable
define range(i32 -1, 1) i32 @hwloc_type_sscanf_as_depth(ptr noundef %0, ptr noundef writeonly captures(address_is_null) %1, ptr noundef readonly captures(none) %2, ptr noundef writeonly captures(none) %3) local_unnamed_addr #8 {
  %5 = alloca i32, align 4
  %6 = alloca %union.hwloc_obj_attr_u, align 8
  call void @llvm.lifetime.start.p0(i64 4, ptr nonnull %5) #20
  call void @llvm.lifetime.start.p0(i64 48, ptr nonnull %6) #20
  %7 = call i32 @hwloc_type_sscanf(ptr noundef %0, ptr noundef nonnull %5, ptr noundef nonnull %6, i64 noundef 48)
  %8 = icmp slt i32 %7, 0
  br i1 %8, label %37, label %9

9:                                                ; preds = %4
  %.not = icmp eq ptr %1, null
  %.pr = load i32, ptr %5, align 4, !tbaa !3
  br i1 %.not, label %thread-pre-split, label %10

10:                                               ; preds = %9
  store i32 %.pr, ptr %1, align 4, !tbaa !3
  br label %thread-pre-split

thread-pre-split:                                 ; preds = %9, %10
  %11 = icmp ugt i32 %.pr, 19
  br i1 %11, label %hwloc_get_type_depth_with_attr.exit, label %hwloc_get_type_depth.exit.i

hwloc_get_type_depth.exit.i:                      ; preds = %thread-pre-split
  %12 = getelementptr inbounds nuw i8, ptr %2, i64 40
  %13 = zext nneg i32 %.pr to i64
  %14 = getelementptr inbounds nuw [20 x i32], ptr %12, i64 0, i64 %13
  %15 = load i32, ptr %14, align 4, !tbaa !3
  %16 = icmp eq i32 %.pr, 13
  %17 = icmp eq i32 %15, -2
  %or.cond.i = select i1 %16, i1 %17, i1 false
  br i1 %or.cond.i, label %18, label %hwloc_get_type_depth_with_attr.exit

18:                                               ; preds = %hwloc_get_type_depth.exit.i
  %19 = load i32, ptr %6, align 8, !tbaa !60
  %.not.i = icmp eq i32 %19, -1
  br i1 %.not.i, label %hwloc_get_type_depth_with_attr.exit, label %.preheader.i

.preheader.i:                                     ; preds = %18
  %20 = getelementptr inbounds nuw i8, ptr %2, i64 4
  %21 = load i32, ptr %20, align 4, !tbaa !7
  %.not28.i = icmp eq i32 %21, 0
  br i1 %.not28.i, label %hwloc_get_type_depth_with_attr.exit, label %.lr.ph.i

.lr.ph.i:                                         ; preds = %.preheader.i
  %22 = getelementptr inbounds nuw i8, ptr %2, i64 24
  %23 = load ptr, ptr %22, align 8, !tbaa !32
  %wide.trip.count.i = zext i32 %21 to i64
  br label %24

24:                                               ; preds = %35, %.lr.ph.i
  %indvars.iv.i = phi i64 [ 0, %.lr.ph.i ], [ %indvars.iv.next.i, %35 ]
  %25 = getelementptr inbounds nuw ptr, ptr %23, i64 %indvars.iv.i
  %26 = load ptr, ptr %25, align 8, !tbaa !33
  %27 = load ptr, ptr %26, align 8, !tbaa !35
  %28 = load i32, ptr %27, align 8, !tbaa !37
  %29 = icmp eq i32 %28, 13
  br i1 %29, label %30, label %35

30:                                               ; preds = %24
  %31 = getelementptr inbounds nuw i8, ptr %27, i64 40
  %32 = load ptr, ptr %31, align 8, !tbaa !62
  %33 = load i32, ptr %32, align 8, !tbaa !60
  %34 = icmp eq i32 %33, %19
  br i1 %34, label %hwloc_get_type_depth.exit.thread.loopexit.split.loop.exit30.i, label %35

35:                                               ; preds = %30, %24
  %indvars.iv.next.i = add nuw nsw i64 %indvars.iv.i, 1
  %exitcond.not.i = icmp eq i64 %indvars.iv.next.i, %wide.trip.count.i
  br i1 %exitcond.not.i, label %hwloc_get_type_depth_with_attr.exit, label %24, !llvm.loop !63

hwloc_get_type_depth.exit.thread.loopexit.split.loop.exit30.i: ; preds = %30
  %36 = trunc nuw i64 %indvars.iv.i to i32
  br label %hwloc_get_type_depth_with_attr.exit

hwloc_get_type_depth_with_attr.exit:              ; preds = %35, %thread-pre-split, %hwloc_get_type_depth.exit.i, %18, %.preheader.i, %hwloc_get_type_depth.exit.thread.loopexit.split.loop.exit30.i
  %.019.i = phi i32 [ -2, %18 ], [ %15, %hwloc_get_type_depth.exit.i ], [ -1, %thread-pre-split ], [ -1, %.preheader.i ], [ %36, %hwloc_get_type_depth.exit.thread.loopexit.split.loop.exit30.i ], [ -1, %35 ]
  store i32 %.019.i, ptr %3, align 4, !tbaa !3
  br label %37

37:                                               ; preds = %4, %hwloc_get_type_depth_with_attr.exit
  %.0 = phi i32 [ 0, %hwloc_get_type_depth_with_attr.exit ], [ -1, %4 ]
  call void @llvm.lifetime.end.p0(i64 48, ptr nonnull %6) #20
  call void @llvm.lifetime.end.p0(i64 4, ptr nonnull %5) #20
  ret i32 %.0
}